target datalayout = "e-m:e-p270:32:32-p271:32:32-p272:64:64-i64:64-i128:128-f80:128-n8:16:32:64-S128"
target triple = "x86_64-pc-linux-gnu"

%struct.RV60Context = type { ptr, %struct.VideoDSPContext, [3 x ptr], i32, i32, i32, i32, i32, i32, i32, i32, i32, i32, i32, i32, ptr, i32, ptr, i32, ptr, i32, ptr, ptr, [2 x i64], i64, [2 x i32], ptr, i32 }
%struct.VideoDSPContext = type { ptr, ptr }
%struct.ThreadProgress = type { i32, i32, %union.pthread_mutex_t, %union.pthread_cond_t }
%union.pthread_mutex_t = type { %struct.__pthread_mutex_s }
%struct.__pthread_mutex_s = type { i32, i32, i32, i32, i32, i16, i16, %struct.__pthread_internal_list }
%struct.__pthread_internal_list = type { ptr, ptr }
%union.pthread_cond_t = type { %struct.__pthread_cond_s }
%struct.__pthread_cond_s = type { %union.__atomic_wide_counter, %union.__atomic_wide_counter, [2 x i32], [2 x i32], i32, i32, [2 x i32] }
%union.__atomic_wide_counter = type { i64 }

; Function Attrs: inlinehint nounwind uwtable
define internal void @ff_thread_progress_reset(ptr noundef %0) #6 {
  %2 = alloca ptr, align 8
  store ptr %0, ptr %2, align 8, !tbaa !136
  %3 = load ptr, ptr %2, align 8, !tbaa !136
  %4 = getelementptr inbounds nuw %struct.ThreadProgress, ptr %3, i32 0, i32 0
  %5 = load ptr, ptr %2, align 8, !tbaa !136
  %6 = getelementptr inbounds nuw %struct.ThreadProgress, ptr %5, i32 0, i32 1
  %7 = load i32, ptr %6, align 4, !tbaa !137
  %8 = icmp ne i32 %7, 0
  %9 = select i1 %8, i32 -1, i32 2147483647
  store i32 %9, ptr %4, align 4, !tbaa !48
  ret void
}

; Function Attrs: nounwind uwtable
define internal i32 @progress_init(ptr noundef %0, i32 noundef %1) #1 {
  %3 = alloca i32, align 4
  %4 = alloca ptr, align 8
  %5 = alloca i32, align 4
  %6 = alloca ptr, align 8
  %7 = alloca i32, align 4
  %8 = alloca i32, align 4
  %9 = alloca i32, align 4
  %10 = alloca i32, align 4
  store ptr %0, ptr %4, align 8, !tbaa !29
  store i32 %1, ptr %5, align 4, !tbaa !36
  %11 = load ptr, ptr %4, align 8, !tbaa !29
  %12 = getelementptr inbounds nuw %struct.RV60Context, ptr %11, i32 0, i32 27
  %13 = load i32, ptr %12, align 8, !tbaa !71
  %14 = load i32, ptr %5, align 4, !tbaa !36
  %15 = icmp ult i32 %13, %14
  br i1 %15, label %16, label %82

16:                                               ; preds = %2
  call void @llvm.lifetime.start.p0(i64 8, ptr %6) #11
  %17 = load ptr, ptr %4, align 8, !tbaa !29
  %18 = getelementptr inbounds nuw %struct.RV60Context, ptr %17, i32 0, i32 26
  %19 = load ptr, ptr %18, align 8, !tbaa !72
  %20 = load i32, ptr %5, align 4, !tbaa !36
  %21 = zext i32 %20 to i64
  %22 = call ptr @av_realloc_array(ptr noundef %19, i64 noundef %21, i64 noundef 96)
  store ptr %22, ptr %6, align 8, !tbaa !87
  %23 = load ptr, ptr %6, align 8, !tbaa !87
  %24 = icmp ne ptr %23, null
  br i1 %24, label %26, label %25

25:                                               ; preds = %16
  store i32 -12, ptr %3, align 4
  store i32 1, ptr %7, align 4
  br label %79

26:                                               ; preds = %16
  %27 = load ptr, ptr %6, align 8, !tbaa !87
  %28 = load ptr, ptr %4, align 8, !tbaa !29
  %29 = getelementptr inbounds nuw %struct.RV60Context, ptr %28, i32 0, i32 26
  store ptr %27, ptr %29, align 8, !tbaa !72
  %30 = load ptr, ptr %4, align 8, !tbaa !29
  %31 = getelementptr inbounds nuw %struct.RV60Context, ptr %30, i32 0, i32 26
  %32 = load ptr, ptr %31, align 8, !tbaa !72
  %33 = load ptr, ptr %4, align 8, !tbaa !29
  %34 = getelementptr inbounds nuw %struct.RV60Context, ptr %33, i32 0, i32 27
  %35 = load i32, ptr %34, align 8, !tbaa !71
  %36 = zext i32 %35 to i64
  %37 = getelementptr inbounds nuw %struct.ThreadProgress, ptr %32, i64 %36
  %38 = load i32, ptr %5, align 4, !tbaa !36
  %39 = load ptr, ptr %4, align 8, !tbaa !29
  %40 = getelementptr inbounds nuw %struct.RV60Context, ptr %39, i32 0, i32 27
  %41 = load i32, ptr %40, align 8, !tbaa !71
  %42 = sub i32 %38, %41
  %43 = zext i32 %42 to i64
  %44 = mul i64 %43, 96
  call void @llvm.memset.p0.i64(ptr align 8 %37, i8 0, i64 %44, i1 false)
  call void @llvm.lifetime.start.p0(i64 4, ptr %8) #11
  %45 = load ptr, ptr %4, align 8, !tbaa !29
  %46 = getelementptr inbounds nuw %struct.RV60Context, ptr %45, i32 0, i32 27
  %47 = load i32, ptr %46, align 8, !tbaa !71
  store i32 %47, ptr %8, align 4, !tbaa !36
  br label %48

48:                                               ; preds = %73, %26
  %49 = load i32, ptr %8, align 4, !tbaa !36
  %50 = load i32, ptr %5, align 4, !tbaa !36
  %51 = icmp ult i32 %49, %50
  br i1 %51, label %53, label %52

52:                                               ; preds = %48
  store i32 2, ptr %7, align 4
  br label %76

53:                                               ; preds = %48
  call void @llvm.lifetime.start.p0(i64 4, ptr %9) #11
  %54 = load ptr, ptr %4, align 8, !tbaa !29
  %55 = getelementptr inbounds nuw %struct.RV60Context, ptr %54, i32 0, i32 26
  %56 = load ptr, ptr %55, align 8, !tbaa !72
  %57 = load i32, ptr %8, align 4, !tbaa !36
  %58 = sext i32 %57 to i64
  %59 = getelementptr inbounds %struct.ThreadProgress, ptr %56, i64 %58
  %60 = call i32 @ff_thread_progress_init(ptr noundef %59, i32 noundef 1)
  store i32 %60, ptr %9, align 4, !tbaa !36
  %61 = load i32, ptr %9, align 4, !tbaa !36
  %62 = icmp slt i32 %61, 0
  br i1 %62, label %63, label %65

63:                                               ; preds = %53
  %64 = load i32, ptr %9, align 4, !tbaa !36
  store i32 %64, ptr %3, align 4
  store i32 1, ptr %7, align 4
  br label %70

65:                                               ; preds = %53
  %66 = load i32, ptr %8, align 4, !tbaa !36
  %67 = add nsw i32 %66, 1
  %68 = load ptr, ptr %4, align 8, !tbaa !29
  %69 = getelementptr inbounds nuw %struct.RV60Context, ptr %68, i32 0, i32 27
  store i32 %67, ptr %69, align 8, !tbaa !71
  store i32 0, ptr %7, align 4
  br label %70

70:                                               ; preds = %65, %63
  call void @llvm.lifetime.end.p0(i64 4, ptr %9) #11
  %71 = load i32, ptr %7, align 4
  switch i32 %71, label %76 [
    i32 0, label %72
  ]

72:                                               ; preds = %70
  br label %73

73:                                               ; preds = %72
  %74 = load i32, ptr %8, align 4, !tbaa !36
  %75 = add nsw i32 %74, 1
  store i32 %75, ptr %8, align 4, !tbaa !36
  br label %48, !llvm.loop !126

76:                                               ; preds = %70, %52
  call void @llvm.lifetime.end.p0(i64 4, ptr %8) #11
  %77 = load i32, ptr %7, align 4
  switch i32 %77, label %79 [
    i32 2, label %78
  ]

78:                                               ; preds = %76
  store i32 0, ptr %7, align 4
  br label %79

79:                                               ; preds = %78, %76, %25
  call void @llvm.lifetime.end.p0(i64 8, ptr %6) #11
  %80 = load i32, ptr %7, align 4
  switch i32 %80, label %101 [
    i32 0, label %81
    i32 1, label %99
  ]

81:                                               ; preds = %79
  br label %82

82:                                               ; preds = %81, %2
  call void @llvm.lifetime.start.p0(i64 4, ptr %10) #11
  store i32 0, ptr %10, align 4, !tbaa !36
  br label %83

83:                                               ; preds = %95, %82
  %84 = load i32, ptr %10, align 4, !tbaa !36
  %85 = load i32, ptr %5, align 4, !tbaa !36
  %86 = icmp ult i32 %84, %85
  br i1 %86, label %88, label %87

87:                                               ; preds = %83
  store i32 5, ptr %7, align 4
  call void @llvm.lifetime.end.p0(i64 4, ptr %10) #11
  br label %98

88:                                               ; preds = %83
  %89 = load ptr, ptr %4, align 8, !tbaa !29
  %90 = getelementptr inbounds nuw %struct.RV60Context, ptr %89, i32 0, i32 26
  %91 = load ptr, ptr %90, align 8, !tbaa !72
  %92 = load i32, ptr %10, align 4, !tbaa !36
  %93 = sext i32 %92 to i64
  %94 = getelementptr inbounds %struct.ThreadProgress, ptr %91, i64 %93
  call void @ff_thread_progress_reset(ptr noundef %94)
  br label %95

95:                                               ; preds = %88
  %96 = load i32, ptr %10, align 4, !tbaa !36
  %97 = add nsw i32 %96, 1
  store i32 %97, ptr %10, align 4, !tbaa !36
  br label %83, !llvm.loop !127

98:                                               ; preds = %87
  store i32 0, ptr %3, align 4
  br label %99

99:                                               ; preds = %98, %79
  %100 = load i32, ptr %3, align 4
  ret i32 %100

101:                                              ; preds = %79
  unreachable
}