; Function Attrs: nounwind uwtable
define internal fastcc range(i32 -2147483648, 1) i32 @progress_init(ptr noundef captures(none) %0, i32 noundef %1) unnamed_addr #1 {
  %3 = getelementptr inbounds nuw i8, ptr %0, i64 200
  %4 = load i32, ptr %3, align 8, !tbaa !78
  %5 = icmp ult i32 %4, %1
  br i1 %5, label %6, label %.loopexit

6:                                                ; preds = %2
  %7 = getelementptr inbounds nuw i8, ptr %0, i64 192
  %8 = load ptr, ptr %7, align 8, !tbaa !80
  %9 = zext i32 %1 to i64
  %10 = tail call ptr @av_realloc_array(ptr noundef %8, i64 noundef %9, i64 noundef 96) #16
  %.not = icmp eq ptr %10, null
  br i1 %.not, label %.thread41, label %11

11:                                               ; preds = %6
  store ptr %10, ptr %7, align 8, !tbaa !80
  %12 = load i32, ptr %3, align 8, !tbaa !78
  %13 = zext i32 %12 to i64
  %14 = getelementptr inbounds nuw %struct.ThreadProgress, ptr %10, i64 %13
  %15 = sub i32 %1, %12
  %16 = zext i32 %15 to i64
  %17 = mul nuw nsw i64 %16, 96
  tail call void @llvm.memset.p0.i64(ptr nonnull align 8 %14, i8 0, i64 %17, i1 false)
  %18 = load i32, ptr %3, align 8, !tbaa !78
  %.not3846 = icmp ult i32 %18, %1
  br i1 %.not3846, label %.lr.ph.preheader, label %.lr.ph49

.lr.ph.preheader:                                 ; preds = %11
  %19 = sext i32 %18 to i64
  br label %.lr.ph

.lr.ph:                                           ; preds = %.lr.ph.preheader, %24
  %indvars.iv = phi i64 [ %19, %.lr.ph.preheader ], [ %indvars.iv.next, %24 ]
  %20 = load ptr, ptr %7, align 8, !tbaa !80
  %21 = getelementptr inbounds %struct.ThreadProgress, ptr %20, i64 %indvars.iv
  %22 = tail call i32 @ff_thread_progress_init(ptr noundef %21, i32 noundef 1) #16
  %23 = icmp sgt i32 %22, -1
  br i1 %23, label %24, label %.thread41

24:                                               ; preds = %.lr.ph
  %indvars.iv.next = add nuw nsw i64 %indvars.iv, 1
  %25 = trunc nsw i64 %indvars.iv.next to i32
  store i32 %25, ptr %3, align 8, !tbaa !78
  %.not38 = icmp ugt i32 %1, %25
  br i1 %.not38, label %.lr.ph, label %.lr.ph49, !llvm.loop !119

.loopexit:                                        ; preds = %2
  %.not50 = icmp eq i32 %1, 0
  br i1 %.not50, label %.thread41, label %.lr.ph49

.lr.ph49:                                         ; preds = %24, %11, %.loopexit
  %26 = getelementptr inbounds nuw i8, ptr %0, i64 192
  %wide.trip.count = zext i32 %1 to i64
  br label %27

27:                                               ; preds = %.lr.ph49, %27
  %indvars.iv54 = phi i64 [ 0, %.lr.ph49 ], [ %indvars.iv.next55, %27 ]
  %28 = load ptr, ptr %26, align 8, !tbaa !80
  %29 = getelementptr inbounds nuw %struct.ThreadProgress, ptr %28, i64 %indvars.iv54
  %30 = getelementptr inbounds nuw i8, ptr %29, i64 4
  %31 = load i32, ptr %30, align 4, !tbaa !120
  %.not.i = icmp eq i32 %31, 0
  %32 = select i1 %.not.i, i32 2147483647, i32 -1
  store i32 %32, ptr %29, align 4, !tbaa !42
  %indvars.iv.next55 = add nuw nsw i64 %indvars.iv54, 1
  %exitcond.not = icmp eq i64 %indvars.iv.next55, %wide.trip.count
  br i1 %exitcond.not, label %.thread41, label %27, !llvm.loop !122

.thread41:                                        ; preds = %.lr.ph, %27, %.loopexit, %6
  %.4 = phi i32 [ -12, %6 ], [ 0, %.loopexit ], [ 0, %27 ], [ %22, %.lr.ph ]
  ret i32 %.4
}